#include <math.h>
#include <stdio.h>
#include <stdlib.h>
#include <string.h>

int main()
{
	char zfc[256];
	char zfcsc[256];
	int  n;
	char a='A',t='T',g='G',c='C';
//	char x,y;
	scanf("%d",&n);
	for(int i=0;i<n;i++){
		scanf("%s",&zfc);
		for(int j=0;j<256;j++){
			if(zfc[j]==a){
				zfcsc[j]=t;
			}
			else if(zfc[j]==t){
				zfcsc[j]=a;
			}
			else if(zfc[j]==g){
				zfcsc[j]=c;
			}
			else if(zfc[j]==c){
				zfcsc[j]=g;
			}
			else  if(zfc[j]=='\0'){
				zfcsc[j]='\0';
			}
		}
		printf("%s\n",zfcsc);
	}
	return 0;
}
