; ModuleID = '33/815.c'
source_filename = "33/815.c"
target datalayout = "e-m:e-p270:32:32-p271:32:32-p272:64:64-i64:64-f80:128-n8:16:32:64-S128"
target triple = "x86_64-pc-linux-gnu"

@.str = private unnamed_addr constant [3 x i8] c"%d\00", align 1
@.str.1 = private unnamed_addr constant [3 x i8] c"%s\00", align 1
@.str.2 = private unnamed_addr constant [4 x i8] c"%s\0A\00", align 1

; Function Attrs: noinline nounwind uwtable
define dso_local i32 @main() #0 {
  %1 = alloca i32, align 4
  %2 = alloca [256 x i8], align 16
  %3 = alloca [256 x i8], align 16
  %4 = alloca i32, align 4
  %5 = alloca i8, align 1
  %6 = alloca i8, align 1
  %7 = alloca i8, align 1
  %8 = alloca i8, align 1
  %9 = alloca i32, align 4
  %10 = alloca i32, align 4
  store i32 0, i32* %1, align 4
  store i8 65, i8* %5, align 1
  store i8 84, i8* %6, align 1
  store i8 71, i8* %7, align 1
  store i8 67, i8* %8, align 1
  %11 = call i32 (i8*, ...) @__isoc99_scanf(i8* getelementptr inbounds ([3 x i8], [3 x i8]* @.str, i64 0, i64 0), i32* %4)
  store i32 0, i32* %9, align 4
  br label %12

12:                                               ; preds = %99, %0
  %13 = load i32, i32* %9, align 4
  %14 = load i32, i32* %4, align 4
  %15 = icmp slt i32 %13, %14
  br i1 %15, label %16, label %102

16:                                               ; preds = %12
  %17 = call i32 (i8*, ...) @__isoc99_scanf(i8* getelementptr inbounds ([3 x i8], [3 x i8]* @.str.1, i64 0, i64 0), [256 x i8]* %2)
  store i32 0, i32* %10, align 4
  br label %18

18:                                               ; preds = %93, %16
  %19 = load i32, i32* %10, align 4
  %20 = icmp slt i32 %19, 256
  br i1 %20, label %21, label %96

21:                                               ; preds = %18
  %22 = load i32, i32* %10, align 4
  %23 = sext i32 %22 to i64
  %24 = getelementptr inbounds [256 x i8], [256 x i8]* %2, i64 0, i64 %23
  %25 = load i8, i8* %24, align 1
  %26 = sext i8 %25 to i32
  %27 = load i8, i8* %5, align 1
  %28 = sext i8 %27 to i32
  %29 = icmp eq i32 %26, %28
  br i1 %29, label %30, label %35

30:                                               ; preds = %21
  %31 = load i8, i8* %6, align 1
  %32 = load i32, i32* %10, align 4
  %33 = sext i32 %32 to i64
  %34 = getelementptr inbounds [256 x i8], [256 x i8]* %3, i64 0, i64 %33
  store i8 %31, i8* %34, align 1
  br label %92

35:                                               ; preds = %21
  %36 = load i32, i32* %10, align 4
  %37 = sext i32 %36 to i64
  %38 = getelementptr inbounds [256 x i8], [256 x i8]* %2, i64 0, i64 %37
  %39 = load i8, i8* %38, align 1
  %40 = sext i8 %39 to i32
  %41 = load i8, i8* %6, align 1
  %42 = sext i8 %41 to i32
  %43 = icmp eq i32 %40, %42
  br i1 %43, label %44, label %49

44:                                               ; preds = %35
  %45 = load i8, i8* %5, align 1
  %46 = load i32, i32* %10, align 4
  %47 = sext i32 %46 to i64
  %48 = getelementptr inbounds [256 x i8], [256 x i8]* %3, i64 0, i64 %47
  store i8 %45, i8* %48, align 1
  br label %91

49:                                               ; preds = %35
  %50 = load i32, i32* %10, align 4
  %51 = sext i32 %50 to i64
  %52 = getelementptr inbounds [256 x i8], [256 x i8]* %2, i64 0, i64 %51
  %53 = load i8, i8* %52, align 1
  %54 = sext i8 %53 to i32
  %55 = load i8, i8* %7, align 1
  %56 = sext i8 %55 to i32
  %57 = icmp eq i32 %54, %56
  br i1 %57, label %58, label %63

58:                                               ; preds = %49
  %59 = load i8, i8* %8, align 1
  %60 = load i32, i32* %10, align 4
  %61 = sext i32 %60 to i64
  %62 = getelementptr inbounds [256 x i8], [256 x i8]* %3, i64 0, i64 %61
  store i8 %59, i8* %62, align 1
  br label %90

63:                                               ; preds = %49
  %64 = load i32, i32* %10, align 4
  %65 = sext i32 %64 to i64
  %66 = getelementptr inbounds [256 x i8], [256 x i8]* %2, i64 0, i64 %65
  %67 = load i8, i8* %66, align 1
  %68 = sext i8 %67 to i32
  %69 = load i8, i8* %8, align 1
  %70 = sext i8 %69 to i32
  %71 = icmp eq i32 %68, %70
  br i1 %71, label %72, label %77

72:                                               ; preds = %63
  %73 = load i8, i8* %7, align 1
  %74 = load i32, i32* %10, align 4
  %75 = sext i32 %74 to i64
  %76 = getelementptr inbounds [256 x i8], [256 x i8]* %3, i64 0, i64 %75
  store i8 %73, i8* %76, align 1
  br label %89

77:                                               ; preds = %63
  %78 = load i32, i32* %10, align 4
  %79 = sext i32 %78 to i64
  %80 = getelementptr inbounds [256 x i8], [256 x i8]* %2, i64 0, i64 %79
  %81 = load i8, i8* %80, align 1
  %82 = sext i8 %81 to i32
  %83 = icmp eq i32 %82, 0
  br i1 %83, label %84, label %88

84:                                               ; preds = %77
  %85 = load i32, i32* %10, align 4
  %86 = sext i32 %85 to i64
  %87 = getelementptr inbounds [256 x i8], [256 x i8]* %3, i64 0, i64 %86
  store i8 0, i8* %87, align 1
  br label %88

88:                                               ; preds = %84, %77
  br label %89

89:                                               ; preds = %88, %72
  br label %90

90:                                               ; preds = %89, %58
  br label %91

91:                                               ; preds = %90, %44
  br label %92

92:                                               ; preds = %91, %30
  br label %93

93:                                               ; preds = %92
  %94 = load i32, i32* %10, align 4
  %95 = add nsw i32 %94, 1
  store i32 %95, i32* %10, align 4
  br label %18

96:                                               ; preds = %18
  %97 = getelementptr inbounds [256 x i8], [256 x i8]* %3, i64 0, i64 0
  %98 = call i32 (i8*, ...) @printf(i8* getelementptr inbounds ([4 x i8], [4 x i8]* @.str.2, i64 0, i64 0), i8* %97)
  br label %99

99:                                               ; preds = %96
  %100 = load i32, i32* %9, align 4
  %101 = add nsw i32 %100, 1
  store i32 %101, i32* %9, align 4
  br label %12

102:                                              ; preds = %12
  ret i32 0
}

declare dso_local i32 @__isoc99_scanf(i8*, ...) #1

declare dso_local i32 @printf(i8*, ...) #1


!llvm.module.flags = !{!0}
!llvm.ident = !{!1}

!0 = !{i32 1, !"wchar_size", i32 4}
!1 = !{!"clang version 10.0.0-4ubuntu1 "}
